target datalayout = "e-m:e-p270:32:32-p271:32:32-p272:64:64-i64:64-i128:128-f80:128-n8:16:32:64-S128"
target triple = "x86_64-pc-linux-gnu"

%struct.Abc_Frame_t_ = type { ptr, ptr, ptr, ptr, ptr, ptr, ptr, ptr, ptr, ptr, i32, i32, i32, i32, i32, ptr, float, float, i32, i32, ptr, ptr, ptr, double, double, ptr, ptr, ptr, ptr, ptr, ptr, ptr, ptr, ptr, ptr, ptr, ptr, float, ptr, i32, ptr, ptr, ptr, ptr, ptr, i32, i32, i32, i32, i32, i32, ptr, ptr, ptr, ptr, ptr, ptr, i32, i32, ptr, ptr, ptr, ptr, ptr, ptr, ptr, ptr, ptr, ptr, ptr, ptr, ptr, ptr, ptr, ptr, ptr, ptr, ptr, ptr, ptr, ptr, ptr, ptr, ptr, ptr, ptr, ptr, ptr, ptr }
%struct.Vec_Int_t_ = type { i32, i32, ptr }
%struct.Gia_Man_t_ = type { ptr, ptr, i32, i32, i32, i32, ptr, ptr, i32, i32, i32, ptr, ptr, %struct.Vec_Int_t_, %struct.Vec_Int_t_, i32, i32, i32, %struct.Vec_Int_t_, ptr, ptr, ptr, i32, i32, i32, i32, ptr, ptr, ptr, ptr, ptr, i32, i32, ptr, i32, ptr, ptr, ptr, ptr, ptr, ptr, ptr, ptr, ptr, ptr, ptr, ptr, ptr, ptr, ptr, ptr, ptr, ptr, %struct.Vec_Int_t_, %struct.Vec_Int_t_, ptr, ptr, ptr, ptr, ptr, ptr, ptr, ptr, ptr, ptr, ptr, ptr, ptr, ptr, ptr, ptr, ptr, ptr, ptr, ptr, ptr, i32, float, float, ptr, ptr, i32, ptr, ptr, ptr, ptr, ptr, ptr, ptr, ptr, ptr, ptr, ptr, ptr, ptr, ptr, ptr, i64, i64, ptr, ptr, i32, i32, i32, i32, i32, i32, i32, i32, i32, i32, i32, i32, ptr, ptr, ptr, ptr, ptr, ptr, ptr, ptr, i32, i32, i32, ptr, i32, i32, ptr, ptr, ptr, ptr, ptr, ptr, i32, i32, ptr, %struct.Vec_Int_t_, %struct.Vec_Int_t_, %struct.Vec_Int_t_, ptr, ptr, ptr, i32, i32, i32, i32, ptr, ptr, ptr, ptr, ptr }
%struct.timespec = type { i64, i64 }

@.str.41 = private unnamed_addr constant [4 x i8] c"yes\00", align 1
@.str.42 = private unnamed_addr constant [3 x i8] c"no\00", align 1
@.str.45 = private unnamed_addr constant [62 x i8] c"\09-v     : toggle printing verbose information [default = %s]\0A\00", align 1
@.str.46 = private unnamed_addr constant [35 x i8] c"\09-h     : print the command usage\0A\00", align 1
@.str.162 = private unnamed_addr constant [3 x i8] c"vh\00", align 1
@.str.192 = private unnamed_addr constant [50 x i8] c"Abc_CommandInvMin(): There is no current design.\0A\00", align 1
@.str.193 = private unnamed_addr constant [51 x i8] c"Abc_CommandInvMin(): There is no saved invariant.\0A\00", align 1
@.str.194 = private unnamed_addr constant [90 x i8] c"Abc_CommandInvMin(): The number of flops in the invariant and in GIA should be the same.\0A\00", align 1
@.str.195 = private unnamed_addr constant [59 x i8] c"Invariant verification failed for %d clauses (out of %d). \00", align 1
@.str.196 = private unnamed_addr constant [38 x i8] c"Invariant verification succeeded.    \00", align 1
@.str.197 = private unnamed_addr constant [5 x i8] c"Time\00", align 1
@.str.198 = private unnamed_addr constant [24 x i8] c"usage: inv_check [-vh]\0A\00", align 1
@.str.199 = private unnamed_addr constant [70 x i8] c"\09         checks that the invariant is indeed an inductive invariant\0A\00", align 1
@.str.200 = private unnamed_addr constant [66 x i8] c"\09         (AIG representing the design should be in the &-space)\0A\00", align 1
@.str.201 = private unnamed_addr constant [5 x i8] c"%s =\00", align 1
@.str.202 = private unnamed_addr constant [11 x i8] c"%9.2f sec\0A\00", align 1

; Function Attrs: inlinehint nounwind uwtable
define internal void @Abc_PrintTime(i32 noundef %0, ptr noundef %1, i64 noundef %2) #2 {
  %4 = alloca i32, align 4
  %5 = alloca ptr, align 8
  %6 = alloca i64, align 8
  store i32 %0, ptr %4, align 4, !tbaa !8
  store ptr %1, ptr %5, align 8, !tbaa !14
  store i64 %2, ptr %6, align 8, !tbaa !124
  %7 = load ptr, ptr %5, align 8, !tbaa !14
  call void (i32, ptr, ...) @Abc_Print(i32 noundef 1, ptr noundef @.str.201, ptr noundef %7)
  %8 = load i64, ptr %6, align 8, !tbaa !124
  %9 = sitofp i64 %8 to double
  %10 = fmul double 1.000000e+00, %9
  %11 = fdiv double %10, 1.000000e+06
  call void (i32, ptr, ...) @Abc_Print(i32 noundef 1, ptr noundef @.str.202, double noundef %11)
  ret void
}

; Function Attrs: inlinehint nounwind uwtable
define internal i32 @Vec_IntEntry(ptr noundef %0, i32 noundef %1) #2 {
  %3 = alloca ptr, align 8
  %4 = alloca i32, align 4
  store ptr %0, ptr %3, align 8, !tbaa !111
  store i32 %1, ptr %4, align 4, !tbaa !8
  %5 = load ptr, ptr %3, align 8, !tbaa !111
  %6 = getelementptr inbounds nuw %struct.Vec_Int_t_, ptr %5, i32 0, i32 2
  %7 = load ptr, ptr %6, align 8, !tbaa !138
  %8 = load i32, ptr %4, align 4, !tbaa !8
  %9 = sext i32 %8 to i64
  %10 = getelementptr inbounds i32, ptr %7, i64 %9
  %11 = load i32, ptr %10, align 4, !tbaa !8
  ret i32 %11
}

; Function Attrs: inlinehint nounwind uwtable
define internal i32 @Vec_IntEntryLast(ptr noundef %0) #2 {
  %2 = alloca ptr, align 8
  store ptr %0, ptr %2, align 8, !tbaa !111
  %3 = load ptr, ptr %2, align 8, !tbaa !111
  %4 = getelementptr inbounds nuw %struct.Vec_Int_t_, ptr %3, i32 0, i32 2
  %5 = load ptr, ptr %4, align 8, !tbaa !138
  %6 = load ptr, ptr %2, align 8, !tbaa !111
  %7 = getelementptr inbounds nuw %struct.Vec_Int_t_, ptr %6, i32 0, i32 1
  %8 = load i32, ptr %7, align 4, !tbaa !135
  %9 = sub nsw i32 %8, 1
  %10 = sext i32 %9 to i64
  %11 = getelementptr inbounds i32, ptr %5, i64 %10
  %12 = load i32, ptr %11, align 4, !tbaa !8
  ret i32 %12
}

; Function Attrs: inlinehint nounwind uwtable
define internal i32 @Gia_ManRegNum(ptr noundef %0) #2 {
  %2 = alloca ptr, align 8
  store ptr %0, ptr %2, align 8, !tbaa !73
  %3 = load ptr, ptr %2, align 8, !tbaa !73
  %4 = getelementptr inbounds nuw %struct.Gia_Man_t_, ptr %3, i32 0, i32 2
  %5 = load i32, ptr %4, align 8, !tbaa !144
  ret i32 %5
}

; Function Attrs: inlinehint nounwind uwtable
define internal ptr @Wlc_AbcGetInv(ptr noundef %0) #2 {
  %2 = alloca ptr, align 8
  store ptr %0, ptr %2, align 8, !tbaa !3
  %3 = load ptr, ptr %2, align 8, !tbaa !3
  %4 = getelementptr inbounds nuw %struct.Abc_Frame_t_, ptr %3, i32 0, i32 72
  %5 = load ptr, ptr %4, align 8, !tbaa !146
  ret ptr %5
}

; Function Attrs: inlinehint nounwind uwtable
define internal i64 @Abc_Clock() #2 {
  %1 = alloca i64, align 8
  %2 = alloca %struct.timespec, align 8
  %3 = alloca i32, align 4
  %4 = alloca i64, align 8
  call void @llvm.lifetime.start.p0(i64 16, ptr %2) #12
  %5 = call i32 @clock_gettime(i32 noundef 1, ptr noundef %2) #12
  %6 = icmp slt i32 %5, 0
  br i1 %6, label %7, label %8

7:                                                ; preds = %0
  store i64 -1, ptr %1, align 8
  store i32 1, ptr %3, align 4
  br label %19

8:                                                ; preds = %0
  call void @llvm.lifetime.start.p0(i64 8, ptr %4) #12
  %9 = getelementptr inbounds nuw %struct.timespec, ptr %2, i32 0, i32 0
  %10 = load i64, ptr %9, align 8, !tbaa !147
  %11 = mul nsw i64 %10, 1000000
  store i64 %11, ptr %4, align 8, !tbaa !124
  %12 = getelementptr inbounds nuw %struct.timespec, ptr %2, i32 0, i32 1
  %13 = load i64, ptr %12, align 8, !tbaa !149
  %14 = mul nsw i64 %13, 1000000
  %15 = sdiv i64 %14, 1000000000
  %16 = load i64, ptr %4, align 8, !tbaa !124
  %17 = add nsw i64 %16, %15
  store i64 %17, ptr %4, align 8, !tbaa !124
  %18 = load i64, ptr %4, align 8, !tbaa !124
  store i64 %18, ptr %1, align 8
  store i32 1, ptr %3, align 4
  call void @llvm.lifetime.end.p0(i64 8, ptr %4) #12
  br label %19

19:                                               ; preds = %8, %7
  call void @llvm.lifetime.end.p0(i64 16, ptr %2) #12
  %20 = load i64, ptr %1, align 8
  ret i64 %20
}

; Function Attrs: nounwind uwtable
define internal i32 @Abc_CommandInvCheck(ptr noundef %0, i32 noundef %1, ptr noundef %2) #0 {
  %4 = alloca i32, align 4
  %5 = alloca ptr, align 8
  %6 = alloca i32, align 4
  %7 = alloca ptr, align 8
  %8 = alloca i64, align 8
  %9 = alloca i32, align 4
  %10 = alloca i32, align 4
  %11 = alloca i32, align 4
  %12 = alloca i32, align 4
  store ptr %0, ptr %5, align 8, !tbaa !3
  store i32 %1, ptr %6, align 4, !tbaa !8
  store ptr %2, ptr %7, align 8, !tbaa !10
  call void @llvm.lifetime.start.p0(i64 8, ptr %8) #12
  %13 = call i64 @Abc_Clock()
  store i64 %13, ptr %8, align 8, !tbaa !124
  call void @llvm.lifetime.start.p0(i64 4, ptr %9) #12
  call void @llvm.lifetime.start.p0(i64 4, ptr %10) #12
  call void @llvm.lifetime.start.p0(i64 4, ptr %11) #12
  store i32 0, ptr %11, align 4, !tbaa !8
  call void (...) @Extra_UtilGetoptReset()
  br label %14

14:                                               ; preds = %26, %3
  %15 = load i32, ptr %6, align 4, !tbaa !8
  %16 = load ptr, ptr %7, align 8, !tbaa !10
  %17 = call i32 @Extra_UtilGetopt(i32 noundef %15, ptr noundef %16, ptr noundef @.str.162)
  store i32 %17, ptr %9, align 4, !tbaa !8
  %18 = icmp ne i32 %17, -1
  br i1 %18, label %19, label %27

19:                                               ; preds = %14
  %20 = load i32, ptr %9, align 4, !tbaa !8
  switch i32 %20, label %25 [
    i32 118, label %21
    i32 104, label %24
  ]

21:                                               ; preds = %19
  %22 = load i32, ptr %11, align 4, !tbaa !8
  %23 = xor i32 %22, 1
  store i32 %23, ptr %11, align 4, !tbaa !8
  br label %26

24:                                               ; preds = %19
  br label %70

25:                                               ; preds = %19
  br label %70

26:                                               ; preds = %21
  br label %14, !llvm.loop !125

27:                                               ; preds = %14
  %28 = load ptr, ptr %5, align 8, !tbaa !3
  %29 = getelementptr inbounds nuw %struct.Abc_Frame_t_, ptr %28, i32 0, i32 40
  %30 = load ptr, ptr %29, align 8, !tbaa !20
  %31 = icmp eq ptr %30, null
  br i1 %31, label %32, label %33

32:                                               ; preds = %27
  call void (i32, ptr, ...) @Abc_Print(i32 noundef 1, ptr noundef @.str.192)
  store i32 0, ptr %4, align 4
  store i32 1, ptr %12, align 4
  br label %74

33:                                               ; preds = %27
  %34 = load ptr, ptr %5, align 8, !tbaa !3
  %35 = call ptr @Wlc_AbcGetInv(ptr noundef %34)
  %36 = icmp eq ptr %35, null
  br i1 %36, label %37, label %38

37:                                               ; preds = %33
  call void (i32, ptr, ...) @Abc_Print(i32 noundef 1, ptr noundef @.str.193)
  store i32 0, ptr %4, align 4
  store i32 1, ptr %12, align 4
  br label %74

38:                                               ; preds = %33
  %39 = load ptr, ptr %5, align 8, !tbaa !3
  %40 = getelementptr inbounds nuw %struct.Abc_Frame_t_, ptr %39, i32 0, i32 40
  %41 = load ptr, ptr %40, align 8, !tbaa !20
  %42 = call i32 @Gia_ManRegNum(ptr noundef %41)
  %43 = load ptr, ptr %5, align 8, !tbaa !3
  %44 = call ptr @Wlc_AbcGetInv(ptr noundef %43)
  %45 = call i32 @Vec_IntEntryLast(ptr noundef %44)
  %46 = icmp ne i32 %42, %45
  br i1 %46, label %47, label %48

47:                                               ; preds = %38
  call void (i32, ptr, ...) @Abc_Print(i32 noundef 1, ptr noundef @.str.194)
  store i32 0, ptr %4, align 4
  store i32 1, ptr %12, align 4
  br label %74

48:                                               ; preds = %38
  %49 = load ptr, ptr %5, align 8, !tbaa !3
  %50 = getelementptr inbounds nuw %struct.Abc_Frame_t_, ptr %49, i32 0, i32 40
  %51 = load ptr, ptr %50, align 8, !tbaa !20
  %52 = load ptr, ptr %5, align 8, !tbaa !3
  %53 = call ptr @Wlc_AbcGetInv(ptr noundef %52)
  %54 = load i32, ptr %11, align 4, !tbaa !8
  %55 = call i32 @Pdr_InvCheck(ptr noundef %51, ptr noundef %53, i32 noundef %54)
  store i32 %55, ptr %10, align 4, !tbaa !8
  %56 = load i32, ptr %10, align 4, !tbaa !8
  %57 = icmp ne i32 %56, 0
  br i1 %57, label %58, label %64

58:                                               ; preds = %48
  %59 = load i32, ptr %10, align 4, !tbaa !8
  %60 = load ptr, ptr %5, align 8, !tbaa !3
  %61 = call ptr @Wlc_AbcGetInv(ptr noundef %60)
  %62 = call i32 @Vec_IntEntry(ptr noundef %61, i32 noundef 0)
  %63 = call i32 (ptr, ...) @printf(ptr noundef @.str.195, i32 noundef %59, i32 noundef %62)
  br label %66

64:                                               ; preds = %48
  %65 = call i32 (ptr, ...) @printf(ptr noundef @.str.196)
  br label %66

66:                                               ; preds = %64, %58
  %67 = call i64 @Abc_Clock()
  %68 = load i64, ptr %8, align 8, !tbaa !124
  %69 = sub nsw i64 %67, %68
  call void @Abc_PrintTime(i32 noundef 1, ptr noundef @.str.197, i64 noundef %69)
  store i32 0, ptr %4, align 4
  store i32 1, ptr %12, align 4
  br label %74

70:                                               ; preds = %25, %24
  call void (i32, ptr, ...) @Abc_Print(i32 noundef -2, ptr noundef @.str.198)
  call void (i32, ptr, ...) @Abc_Print(i32 noundef -2, ptr noundef @.str.199)
  call void (i32, ptr, ...) @Abc_Print(i32 noundef -2, ptr noundef @.str.200)
  %71 = load i32, ptr %11, align 4, !tbaa !8
  %72 = icmp ne i32 %71, 0
  %73 = select i1 %72, ptr @.str.41, ptr @.str.42
  call void (i32, ptr, ...) @Abc_Print(i32 noundef -2, ptr noundef @.str.45, ptr noundef %73)
  call void (i32, ptr, ...) @Abc_Print(i32 noundef -2, ptr noundef @.str.46)
  store i32 1, ptr %4, align 4
  store i32 1, ptr %12, align 4
  br label %74

74:                                               ; preds = %70, %66, %47, %37, %32
  call void @llvm.lifetime.end.p0(i64 4, ptr %11) #12
  call void @llvm.lifetime.end.p0(i64 4, ptr %10) #12
  call void @llvm.lifetime.end.p0(i64 4, ptr %9) #12
  call void @llvm.lifetime.end.p0(i64 8, ptr %8) #12
  %75 = load i32, ptr %4, align 4
  ret i32 %75
}