; Function Attrs: nounwind uwtable
define internal range(i32 0, 2) i32 @Abc_CommandInvCheck(ptr noundef readonly captures(none) %0, i32 noundef %1, ptr noundef %2) #0 {
  %4 = alloca %struct.timespec, align 8
  %5 = alloca %struct.timespec, align 8
  call void @llvm.lifetime.start.p0(i64 16, ptr nonnull %5) #17
  %6 = call i32 @clock_gettime(i32 noundef 1, ptr noundef nonnull %5) #17
  %7 = icmp slt i32 %6, 0
  br i1 %7, label %Abc_Clock.exit, label %8

8:                                                ; preds = %3
  %9 = load i64, ptr %5, align 8, !tbaa !111
  %.neg31 = mul i64 %9, -1000000
  %10 = getelementptr inbounds nuw i8, ptr %5, i64 8
  %11 = load i64, ptr %10, align 8, !tbaa !113
  %.neg = sdiv i64 %11, -1000
  %.neg32 = add i64 %.neg, %.neg31
  br label %Abc_Clock.exit

Abc_Clock.exit:                                   ; preds = %3, %8
  %.0.i.neg = phi i64 [ %.neg32, %8 ], [ 1, %3 ]
  call void @llvm.lifetime.end.p0(i64 16, ptr nonnull %5) #17
  call void (...) @Extra_UtilGetoptReset() #17
  br label %12

12:                                               ; preds = %14, %Abc_Clock.exit
  %.0 = phi i32 [ 0, %Abc_Clock.exit ], [ %15, %14 ]
  %13 = call i32 @Extra_UtilGetopt(i32 noundef %1, ptr noundef %2, ptr noundef nonnull @.str.162) #17
  switch i32 %13, label %54 [
    i32 -1, label %16
    i32 118, label %14
  ]

14:                                               ; preds = %12
  %15 = xor i32 %.0, 1
  br label %12, !llvm.loop !114

16:                                               ; preds = %12
  %17 = getelementptr inbounds nuw i8, ptr %0, i64 288
  %18 = load ptr, ptr %17, align 8, !tbaa !12
  %19 = icmp eq ptr %18, null
  br i1 %19, label %20, label %21

20:                                               ; preds = %16
  call void (i32, ptr, ...) @Abc_Print(i32 noundef 1, ptr noundef nonnull @.str.192)
  br label %56

21:                                               ; preds = %16
  %22 = getelementptr i8, ptr %0, i64 512
  %.val = load ptr, ptr %22, align 8, !tbaa !109
  %23 = icmp eq ptr %.val, null
  br i1 %23, label %24, label %25

24:                                               ; preds = %21
  call void (i32, ptr, ...) @Abc_Print(i32 noundef 1, ptr noundef nonnull @.str.193)
  br label %56

25:                                               ; preds = %21
  %26 = getelementptr i8, ptr %18, i64 16
  %.val25 = load i32, ptr %26, align 8, !tbaa !97
  %27 = getelementptr i8, ptr %.val, i64 4
  %.val26 = load i32, ptr %27, align 4, !tbaa !37
  %28 = getelementptr i8, ptr %.val, i64 8
  %.val27 = load ptr, ptr %28, align 8, !tbaa !103
  %29 = sext i32 %.val26 to i64
  %30 = getelementptr i32, ptr %.val27, i64 %29
  %31 = getelementptr i8, ptr %30, i64 -4
  %32 = load i32, ptr %31, align 4, !tbaa !5
  %.not19 = icmp eq i32 %.val25, %32
  br i1 %.not19, label %34, label %33

33:                                               ; preds = %25
  call void (i32, ptr, ...) @Abc_Print(i32 noundef 1, ptr noundef nonnull @.str.194)
  br label %56

34:                                               ; preds = %25
  %35 = call i32 @Pdr_InvCheck(ptr noundef nonnull %18, ptr noundef nonnull %.val, i32 noundef %.0) #17
  %.not20 = icmp eq i32 %35, 0
  br i1 %.not20, label %39, label %36

36:                                               ; preds = %34
  %.val24 = load ptr, ptr %22, align 8, !tbaa !109
  %37 = getelementptr i8, ptr %.val24, i64 8
  %.val28 = load ptr, ptr %37, align 8, !tbaa !103
  %.val28.val = load i32, ptr %.val28, align 4, !tbaa !5
  %38 = call i32 (ptr, ...) @printf(ptr noundef nonnull dereferenceable(1) @.str.195, i32 noundef %35, i32 noundef %.val28.val)
  br label %41

39:                                               ; preds = %34
  %40 = call i32 (ptr, ...) @printf(ptr noundef nonnull dereferenceable(1) @.str.196)
  br label %41

41:                                               ; preds = %39, %36
  call void @llvm.lifetime.start.p0(i64 16, ptr nonnull %4) #17
  %42 = call i32 @clock_gettime(i32 noundef 1, ptr noundef nonnull %4) #17
  %43 = icmp slt i32 %42, 0
  br i1 %43, label %Abc_Clock.exit30, label %44

44:                                               ; preds = %41
  %45 = load i64, ptr %4, align 8, !tbaa !111
  %46 = mul nsw i64 %45, 1000000
  %47 = getelementptr inbounds nuw i8, ptr %4, i64 8
  %48 = load i64, ptr %47, align 8, !tbaa !113
  %49 = sdiv i64 %48, 1000
  %50 = add nsw i64 %49, %46
  br label %Abc_Clock.exit30

Abc_Clock.exit30:                                 ; preds = %41, %44
  %.0.i29 = phi i64 [ %50, %44 ], [ -1, %41 ]
  call void @llvm.lifetime.end.p0(i64 16, ptr nonnull %4) #17
  %51 = add i64 %.0.i29, %.0.i.neg
  call void (i32, ptr, ...) @Abc_Print(i32 noundef 1, ptr noundef nonnull @.str.201, ptr noundef nonnull @.str.197)
  %52 = sitofp i64 %51 to double
  %53 = fdiv double %52, 1.000000e+06
  call void (i32, ptr, ...) @Abc_Print(i32 noundef 1, ptr noundef nonnull @.str.202, double noundef %53)
  br label %56

54:                                               ; preds = %12
  call void (i32, ptr, ...) @Abc_Print(i32 noundef -2, ptr noundef nonnull @.str.198)
  call void (i32, ptr, ...) @Abc_Print(i32 noundef -2, ptr noundef nonnull @.str.199)
  call void (i32, ptr, ...) @Abc_Print(i32 noundef -2, ptr noundef nonnull @.str.200)
  %.not21 = icmp eq i32 %.0, 0
  %55 = select i1 %.not21, ptr @.str.42, ptr @.str.41
  call void (i32, ptr, ...) @Abc_Print(i32 noundef -2, ptr noundef nonnull @.str.45, ptr noundef nonnull %55)
  call void (i32, ptr, ...) @Abc_Print(i32 noundef -2, ptr noundef nonnull @.str.46)
  br label %56

56:                                               ; preds = %54, %Abc_Clock.exit30, %33, %24, %20
  %.016 = phi i32 [ 1, %54 ], [ 0, %20 ], [ 0, %24 ], [ 0, %33 ], [ 0, %Abc_Clock.exit30 ]
  ret i32 %.016
}